; Function Attrs: mustprogress nofree norecurse nosync nounwind willreturn memory(read, inaccessiblemem: none) uwtable
define internal noundef zeroext i1 @"_ZNSt17_Function_handlerIFbRKN4llvm13LegalityQueryEEZNS0_20AArch64LegalizerInfoC1ERKNS0_16AArch64SubtargetEE4$_21E9_M_invokeERKSt9_Any_dataS3_"(ptr nocapture noundef nonnull readonly align 8 dereferenceable(16) %0, ptr nocapture noundef nonnull readonly align 8 dereferenceable(40) %1) #11 align 2 {
  %.val = load ptr, ptr %0, align 8
  %3 = getelementptr inbounds i8, ptr %1, i64 8
  %.val2 = load ptr, ptr %3, align 8
  %4 = getelementptr inbounds i8, ptr %.val2, i64 8
  %5 = load i64, ptr %4, align 8
  %6 = load i64, ptr %.val, align 8
  %spec.select.i.i.i.i = icmp eq i64 %5, %6
  %7 = getelementptr inbounds nuw i8, ptr %.val, i64 8
  %8 = load i64, ptr %7, align 8
  %spec.select.i6.i.i.i = icmp eq i64 %5, %8
  %or.cond.i.i.i = select i1 %spec.select.i.i.i.i, i1 true, i1 %spec.select.i6.i.i.i
  br i1 %or.cond.i.i.i, label %9, label %"_ZSt10__invoke_rIbRZN4llvm20AArch64LegalizerInfoC1ERKNS0_16AArch64SubtargetEE4$_21JRKNS0_13LegalityQueryEEENSt9enable_ifIX16is_invocable_r_vIT_T0_DpT1_EESB_E4typeEOSC_DpOSD_.exit"

9:                                                ; preds = %2
  %10 = load i64, ptr %.val2, align 8
  %spec.select.i7.i.i.i = icmp eq i64 %5, %10
  br i1 %spec.select.i7.i.i.i, label %11, label %"_ZSt10__invoke_rIbRZN4llvm20AArch64LegalizerInfoC1ERKNS0_16AArch64SubtargetEE4$_21JRKNS0_13LegalityQueryEEENSt9enable_ifIX16is_invocable_r_vIT_T0_DpT1_EESB_E4typeEOSC_DpOSD_.exit"

11:                                               ; preds = %9
  %12 = getelementptr inbounds nuw i8, ptr %.val, i64 16
  %13 = load i8, ptr %12, align 8
  %14 = trunc i8 %13 to i1
  br label %"_ZSt10__invoke_rIbRZN4llvm20AArch64LegalizerInfoC1ERKNS0_16AArch64SubtargetEE4$_21JRKNS0_13LegalityQueryEEENSt9enable_ifIX16is_invocable_r_vIT_T0_DpT1_EESB_E4typeEOSC_DpOSD_.exit"

"_ZSt10__invoke_rIbRZN4llvm20AArch64LegalizerInfoC1ERKNS0_16AArch64SubtargetEE4$_21JRKNS0_13LegalityQueryEEENSt9enable_ifIX16is_invocable_r_vIT_T0_DpT1_EESB_E4typeEOSC_DpOSD_.exit": ; preds = %2, %9, %11
  %15 = phi i1 [ false, %9 ], [ %14, %11 ], [ false, %2 ]
  ret i1 %15
}